
./learn.o:     file format elf64-x86-64


Disassembly of section .text:

0000000000000000 <my_function>:
   0:	f3 0f 1e fa          	endbr64 
   4:	55                   	push   %rbp
   5:	48 89 e5             	mov    %rsp,%rbp
   8:	90                   	nop
   9:	5d                   	pop    %rbp
   a:	c3                   	ret    

000000000000000b <local_func>:
   b:	f3 0f 1e fa          	endbr64 
   f:	55                   	push   %rbp
  10:	48 89 e5             	mov    %rsp,%rbp
  13:	b8 00 00 00 00       	mov    $0x0,%eax
  18:	e8 00 00 00 00       	call   1d <local_func+0x12>
  1d:	90                   	nop
  1e:	5d                   	pop    %rbp
  1f:	c3                   	ret    

0000000000000020 <main>:
  20:	f3 0f 1e fa          	endbr64 
  24:	55                   	push   %rbp
  25:	48 89 e5             	mov    %rsp,%rbp
  28:	53                   	push   %rbx
  29:	48 83 ec 48          	sub    $0x48,%rsp
  2d:	89 7d bc             	mov    %edi,-0x44(%rbp)
  30:	48 89 75 b0          	mov    %rsi,-0x50(%rbp)
  34:	c7 05 00 00 00 00 01 	movl   $0x1,0x0(%rip)        # 3e <main+0x1e>
  3b:	00 00 00 
  3e:	c7 05 00 00 00 00 03 	movl   $0x3,0x0(%rip)        # 48 <main+0x28>
  45:	00 00 00 
  48:	48 8d 05 00 00 00 00 	lea    0x0(%rip),%rax        # 4f <main+0x2f>
  4f:	48 89 45 c8          	mov    %rax,-0x38(%rbp)
  53:	b8 00 00 00 00       	mov    $0x0,%eax
  58:	e8 00 00 00 00       	call   5d <main+0x3d>
  5d:	b8 00 00 00 00       	mov    $0x0,%eax
  62:	e8 a4 ff ff ff       	call   b <local_func>
  67:	b8 01 00 00 00       	mov    $0x1,%eax
  6c:	bb 0a 00 00 00       	mov    $0xa,%ebx
  71:	cd 80                	int    $0x80
  73:	b8 00 00 00 00       	mov    $0x0,%eax
  78:	48 8b 5d f8          	mov    -0x8(%rbp),%rbx
  7c:	c9                   	leave  
  7d:	c3                   	ret    
