
./learn.o:     file format elf32-i386


Disassembly of section .group:

00000000 <.group>:
   0:	01 00                	add    %eax,(%eax)
   2:	00 00                	add    %al,(%eax)
   4:	06                   	push   %es
   5:	00 00                	add    %al,(%eax)
	...

Disassembly of section .text:

00000000 <my_function>:
   0:	55                   	push   %ebp
   1:	89 e5                	mov    %esp,%ebp
   3:	e8 fc ff ff ff       	call   4 <my_function+0x4>
   8:	05 01 00 00 00       	add    $0x1,%eax
   d:	90                   	nop
   e:	5d                   	pop    %ebp
   f:	c3                   	ret    

00000010 <local_func>:
  10:	55                   	push   %ebp
  11:	89 e5                	mov    %esp,%ebp
  13:	e8 fc ff ff ff       	call   14 <local_func+0x4>
  18:	05 01 00 00 00       	add    $0x1,%eax
  1d:	90                   	nop
  1e:	5d                   	pop    %ebp
  1f:	c3                   	ret    

00000020 <main>:
  20:	55                   	push   %ebp
  21:	89 e5                	mov    %esp,%ebp
  23:	53                   	push   %ebx
  24:	83 ec 20             	sub    $0x20,%esp
  27:	e8 fc ff ff ff       	call   28 <main+0x8>
  2c:	05 01 00 00 00       	add    $0x1,%eax
  31:	c7 80 00 00 00 00 01 	movl   $0x1,0x0(%eax)
  38:	00 00 00 
  3b:	c7 80 00 00 00 00 03 	movl   $0x3,0x0(%eax)
  42:	00 00 00 
  45:	8d 80 00 00 00 00    	lea    0x0(%eax),%eax
  4b:	89 45 e8             	mov    %eax,-0x18(%ebp)
  4e:	e8 fc ff ff ff       	call   4f <main+0x2f>
  53:	e8 b8 ff ff ff       	call   10 <local_func>
  58:	b8 01 00 00 00       	mov    $0x1,%eax
  5d:	bb 00 00 00 00       	mov    $0x0,%ebx
  62:	cd 80                	int    $0x80
  64:	b8 00 00 00 00       	mov    $0x0,%eax
  69:	8b 5d fc             	mov    -0x4(%ebp),%ebx
  6c:	c9                   	leave  
  6d:	c3                   	ret    

Disassembly of section .text.__x86.get_pc_thunk.ax:

00000000 <__x86.get_pc_thunk.ax>:
   0:	8b 04 24             	mov    (%esp),%eax
   3:	c3                   	ret    
