
./learnC:     file format elf32-i386


Disassembly of section .text:

00010000 <my_add>:
   10000:	55                   	push   %ebp
   10001:	89 e5                	mov    %esp,%ebp
   10003:	e8 7d 00 00 00       	call   10085 <__x86.get_pc_thunk.ax>
   10008:	05 38 01 00 00       	add    $0x138,%eax
   1000d:	8b 55 08             	mov    0x8(%ebp),%edx
   10010:	8b 45 0c             	mov    0xc(%ebp),%eax
   10013:	01 d0                	add    %edx,%eax
   10015:	5d                   	pop    %ebp
   10016:	c3                   	ret    

00010017 <my_function>:
   10017:	55                   	push   %ebp
   10018:	89 e5                	mov    %esp,%ebp
   1001a:	e8 66 00 00 00       	call   10085 <__x86.get_pc_thunk.ax>
   1001f:	05 21 01 00 00       	add    $0x121,%eax
   10024:	90                   	nop
   10025:	5d                   	pop    %ebp
   10026:	c3                   	ret    

00010027 <local_func>:
   10027:	55                   	push   %ebp
   10028:	89 e5                	mov    %esp,%ebp
   1002a:	e8 56 00 00 00       	call   10085 <__x86.get_pc_thunk.ax>
   1002f:	05 11 01 00 00       	add    $0x111,%eax
   10034:	90                   	nop
   10035:	5d                   	pop    %ebp
   10036:	c3                   	ret    

00010037 <main>:
   10037:	55                   	push   %ebp
   10038:	89 e5                	mov    %esp,%ebp
   1003a:	53                   	push   %ebx
   1003b:	83 ec 20             	sub    $0x20,%esp
   1003e:	e8 42 00 00 00       	call   10085 <__x86.get_pc_thunk.ax>
   10043:	05 fd 00 00 00       	add    $0xfd,%eax
   10048:	c7 80 0c 00 00 00 01 	movl   $0x1,0xc(%eax)
   1004f:	00 00 00 
   10052:	c7 80 fc ff ff ff 03 	movl   $0x3,-0x4(%eax)
   10059:	00 00 00 
   1005c:	8d 80 f7 fe ff ff    	lea    -0x109(%eax),%eax
   10062:	89 45 e8             	mov    %eax,-0x18(%ebp)
   10065:	e8 ad ff ff ff       	call   10017 <my_function>
   1006a:	e8 b8 ff ff ff       	call   10027 <local_func>
   1006f:	b8 01 00 00 00       	mov    $0x1,%eax
   10074:	bb 00 00 00 00       	mov    $0x0,%ebx
   10079:	cd 80                	int    $0x80
   1007b:	b8 00 00 00 00       	mov    $0x0,%eax
   10080:	8b 5d fc             	mov    -0x4(%ebp),%ebx
   10083:	c9                   	leave  
   10084:	c3                   	ret    

Disassembly of section .text.__x86.get_pc_thunk.ax:

00010085 <__x86.get_pc_thunk.ax>:
   10085:	8b 04 24             	mov    (%esp),%eax
   10088:	c3                   	ret    
